; Function Attrs: nounwind uwtable
define hidden zeroext i1 @Curl_xfer_is_blocked(ptr noundef %0) local_unnamed_addr #0 {
  %2 = getelementptr inbounds nuw i8, ptr %0, i64 316
  %3 = load i32, ptr %2, align 4, !tbaa !98
  %4 = and i32 %3, 2
  %.not = icmp eq i32 %4, 0
  %5 = and i32 %3, 1
  %.not11 = icmp eq i32 %5, 0
  br i1 %.not, label %6, label %7

6:                                                ; preds = %1
  br i1 %.not11, label %10, label %.sink.split

7:                                                ; preds = %1
  %8 = tail call zeroext i1 @Curl_creader_is_paused(ptr noundef nonnull %0) #6
  %.not12 = xor i1 %8, true
  %brmerge = select i1 %.not11, i1 true, i1 %.not12
  %.mux = select i1 %.not11, i1 %8, i1 false
  br i1 %brmerge, label %10, label %.sink.split

.sink.split:                                      ; preds = %7, %6
  %9 = tail call zeroext i1 @Curl_cwriter_is_paused(ptr noundef nonnull %0) #6
  br label %10

10:                                               ; preds = %.sink.split, %7, %6
  %.0 = phi i1 [ false, %6 ], [ %.mux, %7 ], [ %9, %.sink.split ]
  ret i1 %.0
}